; ModuleID = '44/73.c'
source_filename = "44/73.c"
target datalayout = "e-m:e-p270:32:32-p271:32:32-p272:64:64-i64:64-f80:128-n8:16:32:64-S128"
target triple = "x86_64-pc-linux-gnu"

@.str = private unnamed_addr constant [3 x i8] c"%d\00", align 1
@.str.1 = private unnamed_addr constant [4 x i8] c"%d\0A\00", align 1

; Function Attrs: noinline nounwind uwtable
define dso_local i32 @f(i32 %0) #0 {
  %2 = alloca i32, align 4
  %3 = alloca [15 x i32], align 16
  %4 = alloca i32, align 4
  %5 = alloca i32, align 4
  %6 = alloca i32, align 4
  %7 = alloca i32, align 4
  store i32 %0, i32* %2, align 4
  store i32 0, i32* %6, align 4
  %8 = load i32, i32* %2, align 4
  %9 = icmp slt i32 %8, 0
  br i1 %9, label %10, label %11

10:                                               ; preds = %1
  store i32 -1, i32* %7, align 4
  br label %17

11:                                               ; preds = %1
  %12 = load i32, i32* %2, align 4
  %13 = icmp sgt i32 %12, 0
  br i1 %13, label %14, label %15

14:                                               ; preds = %11
  store i32 1, i32* %7, align 4
  br label %16

15:                                               ; preds = %11
  store i32 0, i32* %7, align 4
  br label %16

16:                                               ; preds = %15, %14
  br label %17

17:                                               ; preds = %16, %10
  %18 = load i32, i32* %2, align 4
  %19 = sitofp i32 %18 to double
  %20 = call double @llvm.fabs.f64(double %19)
  %21 = fptosi double %20 to i32
  store i32 %21, i32* %2, align 4
  store i32 1, i32* %4, align 4
  br label %22

22:                                               ; preds = %31, %17
  %23 = load i32, i32* %2, align 4
  %24 = sitofp i32 %23 to double
  %25 = load i32, i32* %4, align 4
  %26 = sitofp i32 %25 to double
  %27 = call double @pow(double 1.000000e+01, double %26) #4
  %28 = fcmp olt double %24, %27
  br i1 %28, label %29, label %30

29:                                               ; preds = %22
  br label %34

30:                                               ; preds = %22
  br label %31

31:                                               ; preds = %30
  %32 = load i32, i32* %4, align 4
  %33 = add nsw i32 %32, 1
  store i32 %33, i32* %4, align 4
  br label %22

34:                                               ; preds = %29
  store i32 0, i32* %5, align 4
  br label %35

35:                                               ; preds = %69, %34
  %36 = load i32, i32* %5, align 4
  %37 = load i32, i32* %4, align 4
  %38 = icmp slt i32 %36, %37
  br i1 %38, label %39, label %72

39:                                               ; preds = %35
  %40 = load i32, i32* %2, align 4
  %41 = sitofp i32 %40 to double
  %42 = load i32, i32* %4, align 4
  %43 = load i32, i32* %5, align 4
  %44 = sub nsw i32 %42, %43
  %45 = sub nsw i32 %44, 1
  %46 = sitofp i32 %45 to double
  %47 = call double @pow(double 1.000000e+01, double %46) #4
  %48 = fdiv double %41, %47
  %49 = fptosi double %48 to i32
  %50 = load i32, i32* %5, align 4
  %51 = sext i32 %50 to i64
  %52 = getelementptr inbounds [15 x i32], [15 x i32]* %3, i64 0, i64 %51
  store i32 %49, i32* %52, align 4
  %53 = load i32, i32* %5, align 4
  %54 = sext i32 %53 to i64
  %55 = getelementptr inbounds [15 x i32], [15 x i32]* %3, i64 0, i64 %54
  %56 = load i32, i32* %55, align 4
  %57 = sitofp i32 %56 to double
  %58 = load i32, i32* %4, align 4
  %59 = load i32, i32* %5, align 4
  %60 = sub nsw i32 %58, %59
  %61 = sub nsw i32 %60, 1
  %62 = sitofp i32 %61 to double
  %63 = call double @pow(double 1.000000e+01, double %62) #4
  %64 = fmul double %57, %63
  %65 = load i32, i32* %2, align 4
  %66 = sitofp i32 %65 to double
  %67 = fsub double %66, %64
  %68 = fptosi double %67 to i32
  store i32 %68, i32* %2, align 4
  br label %69

69:                                               ; preds = %39
  %70 = load i32, i32* %5, align 4
  %71 = add nsw i32 %70, 1
  store i32 %71, i32* %5, align 4
  br label %35

72:                                               ; preds = %35
  store i32 0, i32* %5, align 4
  br label %73

73:                                               ; preds = %91, %72
  %74 = load i32, i32* %5, align 4
  %75 = load i32, i32* %4, align 4
  %76 = icmp slt i32 %74, %75
  br i1 %76, label %77, label %94

77:                                               ; preds = %73
  %78 = load i32, i32* %5, align 4
  %79 = sext i32 %78 to i64
  %80 = getelementptr inbounds [15 x i32], [15 x i32]* %3, i64 0, i64 %79
  %81 = load i32, i32* %80, align 4
  %82 = sitofp i32 %81 to double
  %83 = load i32, i32* %5, align 4
  %84 = sitofp i32 %83 to double
  %85 = call double @pow(double 1.000000e+01, double %84) #4
  %86 = fmul double %82, %85
  %87 = load i32, i32* %6, align 4
  %88 = sitofp i32 %87 to double
  %89 = fadd double %88, %86
  %90 = fptosi double %89 to i32
  store i32 %90, i32* %6, align 4
  br label %91

91:                                               ; preds = %77
  %92 = load i32, i32* %5, align 4
  %93 = add nsw i32 %92, 1
  store i32 %93, i32* %5, align 4
  br label %73

94:                                               ; preds = %73
  %95 = load i32, i32* %6, align 4
  %96 = load i32, i32* %7, align 4
  %97 = mul nsw i32 %95, %96
  ret i32 %97
}

; Function Attrs: nounwind readnone speculatable willreturn
declare double @llvm.fabs.f64(double) #1

; Function Attrs: nounwind
declare dso_local double @pow(double, double) #2

; Function Attrs: noinline nounwind uwtable
define dso_local i32 @main() #0 {
  %1 = alloca i32, align 4
  %2 = alloca i32, align 4
  %3 = alloca i32, align 4
  store i32 0, i32* %1, align 4
  store i32 1, i32* %3, align 4
  br label %4

4:                                                ; preds = %12, %0
  %5 = load i32, i32* %3, align 4
  %6 = icmp sle i32 %5, 6
  br i1 %6, label %7, label %15

7:                                                ; preds = %4
  %8 = call i32 (i8*, ...) @__isoc99_scanf(i8* getelementptr inbounds ([3 x i8], [3 x i8]* @.str, i64 0, i64 0), i32* %2)
  %9 = load i32, i32* %2, align 4
  %10 = call i32 @f(i32 %9)
  %11 = call i32 (i8*, ...) @printf(i8* getelementptr inbounds ([4 x i8], [4 x i8]* @.str.1, i64 0, i64 0), i32 %10)
  br label %12

12:                                               ; preds = %7
  %13 = load i32, i32* %3, align 4
  %14 = add nsw i32 %13, 1
  store i32 %14, i32* %3, align 4
  br label %4

15:                                               ; preds = %4
  %16 = load i32, i32* %1, align 4
  ret i32 %16
}

declare dso_local i32 @__isoc99_scanf(i8*, ...) #3

declare dso_local i32 @printf(i8*, ...) #3


!llvm.module.flags = !{!0}
!llvm.ident = !{!1}

!0 = !{i32 1, !"wchar_size", i32 4}
!1 = !{!"clang version 10.0.0-4ubuntu1 "}
